target datalayout = "e-m:e-p270:32:32-p271:32:32-p272:64:64-i64:64-i128:128-f80:128-n8:16:32:64-S128"
target triple = "x86_64-pc-linux-gnu"

%struct.SDL_HIDAPI_Device = type { ptr, ptr, ptr, ptr, i16, i16, i16, ptr, %struct.SDL_GUID, i32, i32, i32, i32, i16, i16, i8, i32, i32, i32, ptr, ptr, ptr, ptr, %struct.SDL_AtomicInt, i32, ptr, i8, i8, i8, ptr, i32, ptr, ptr }
%struct.SDL_GUID = type { [16 x i8] }
%struct.SDL_AtomicInt = type { i32 }

; Function Attrs: nounwind uwtable
define internal i32 @ReadFeatureReport(ptr noundef %0, i8 noundef zeroext %1, ptr noundef %2, i64 noundef %3) #0 {
  %5 = alloca ptr, align 8
  %6 = alloca i8, align 1
  %7 = alloca ptr, align 8
  %8 = alloca i64, align 8
  store ptr %0, ptr %5, align 8
  store i8 %1, ptr %6, align 1
  store ptr %2, ptr %7, align 8
  store i64 %3, ptr %8, align 8
  %9 = load ptr, ptr %7, align 8
  %10 = load i64, ptr %8, align 8
  call void @llvm.memset.p0.i64(ptr align 1 %9, i8 0, i64 %10, i1 false)
  %11 = load i8, ptr %6, align 1
  %12 = load ptr, ptr %7, align 8
  %13 = getelementptr inbounds i8, ptr %12, i64 0
  store i8 %11, ptr %13, align 1
  %14 = load ptr, ptr %5, align 8
  %15 = load ptr, ptr %7, align 8
  %16 = load i64, ptr %8, align 8
  %17 = call i32 @SDL_hid_get_feature_report_REAL(ptr noundef %14, ptr noundef %15, i64 noundef %16)
  ret i32 %17
}

; Function Attrs: nounwind uwtable
define internal zeroext i1 @HIDAPI_DriverPS3ThirdParty_IsSupportedDevice(ptr noundef %0, ptr noundef %1, i32 noundef %2, i16 noundef zeroext %3, i16 noundef zeroext %4, i16 noundef zeroext %5, i32 noundef %6, i32 noundef %7, i32 noundef %8, i32 noundef %9) #0 {
  %11 = alloca i1, align 1
  %12 = alloca ptr, align 8
  %13 = alloca ptr, align 8
  %14 = alloca i32, align 4
  %15 = alloca i16, align 2
  %16 = alloca i16, align 2
  %17 = alloca i16, align 2
  %18 = alloca i32, align 4
  %19 = alloca i32, align 4
  %20 = alloca i32, align 4
  %21 = alloca i32, align 4
  %22 = alloca [64 x i8], align 16
  %23 = alloca i32, align 4
  %24 = alloca i32, align 4
  store ptr %0, ptr %12, align 8
  store ptr %1, ptr %13, align 8
  store i32 %2, ptr %14, align 4
  store i16 %3, ptr %15, align 2
  store i16 %4, ptr %16, align 2
  store i16 %5, ptr %17, align 2
  store i32 %6, ptr %18, align 4
  store i32 %7, ptr %19, align 4
  store i32 %8, ptr %20, align 4
  store i32 %9, ptr %21, align 4
  call void @llvm.lifetime.start.p0(i64 64, ptr %22) #7
  call void @llvm.lifetime.start.p0(i64 4, ptr %23) #7
  %25 = load i16, ptr %15, align 2
  %26 = zext i16 %25 to i32
  %27 = icmp eq i32 %26, 1133
  br i1 %27, label %28, label %33

28:                                               ; preds = %10
  %29 = load i16, ptr %16, align 2
  %30 = zext i16 %29 to i32
  %31 = icmp eq i32 %30, 51921
  br i1 %31, label %32, label %33

32:                                               ; preds = %28
  store i1 true, ptr %11, align 1
  store i32 1, ptr %24, align 4
  br label %69

33:                                               ; preds = %28, %10
  %34 = load i32, ptr %14, align 4
  %35 = icmp eq i32 %34, 4
  br i1 %35, label %36, label %40

36:                                               ; preds = %33
  %37 = load i16, ptr %15, align 2
  %38 = zext i16 %37 to i32
  %39 = icmp ne i32 %38, 1356
  br i1 %39, label %44, label %40

40:                                               ; preds = %36, %33
  %41 = load i16, ptr %15, align 2
  %42 = load i16, ptr %16, align 2
  %43 = call zeroext i1 @HIDAPI_SupportsPlaystationDetection(i16 noundef zeroext %41, i16 noundef zeroext %42)
  br i1 %43, label %44, label %68

44:                                               ; preds = %40, %36
  %45 = load ptr, ptr %12, align 8
  %46 = icmp ne ptr %45, null
  br i1 %46, label %47, label %67

47:                                               ; preds = %44
  %48 = load ptr, ptr %12, align 8
  %49 = getelementptr inbounds nuw %struct.SDL_HIDAPI_Device, ptr %48, i32 0, i32 22
  %50 = load ptr, ptr %49, align 8
  %51 = icmp ne ptr %50, null
  br i1 %51, label %52, label %67

52:                                               ; preds = %47
  %53 = load ptr, ptr %12, align 8
  %54 = getelementptr inbounds nuw %struct.SDL_HIDAPI_Device, ptr %53, i32 0, i32 22
  %55 = load ptr, ptr %54, align 8
  %56 = getelementptr inbounds [64 x i8], ptr %22, i64 0, i64 0
  %57 = call i32 @ReadFeatureReport(ptr noundef %55, i8 noundef zeroext 3, ptr noundef %56, i64 noundef 64)
  store i32 %57, ptr %23, align 4
  %58 = load i32, ptr %23, align 4
  %59 = icmp eq i32 %58, 8
  br i1 %59, label %60, label %66

60:                                               ; preds = %52
  %61 = getelementptr inbounds [64 x i8], ptr %22, i64 0, i64 2
  %62 = load i8, ptr %61, align 2
  %63 = zext i8 %62 to i32
  %64 = icmp eq i32 %63, 38
  br i1 %64, label %65, label %66

65:                                               ; preds = %60
  store i1 true, ptr %11, align 1
  store i32 1, ptr %24, align 4
  br label %69

66:                                               ; preds = %60, %52
  store i1 false, ptr %11, align 1
  store i32 1, ptr %24, align 4
  br label %69

67:                                               ; preds = %47, %44
  store i1 true, ptr %11, align 1
  store i32 1, ptr %24, align 4
  br label %69

68:                                               ; preds = %40
  store i1 false, ptr %11, align 1
  store i32 1, ptr %24, align 4
  br label %69

69:                                               ; preds = %68, %67, %66, %65, %32
  call void @llvm.lifetime.end.p0(i64 4, ptr %23) #7
  call void @llvm.lifetime.end.p0(i64 64, ptr %22) #7
  %70 = load i1, ptr %11, align 1
  ret i1 %70
}