; Function Attrs: nounwind uwtable
define internal zeroext i1 @HIDAPI_DriverPS3ThirdParty_IsSupportedDevice(ptr noundef readonly captures(address_is_null) %0, ptr readnone captures(none) %1, i32 noundef %2, i16 noundef zeroext %3, i16 noundef zeroext %4, i16 zeroext %5, i32 %6, i32 %7, i32 %8, i32 %9) #0 {
  %11 = alloca [64 x i8], align 16
  call void @llvm.lifetime.start.p0(i64 64, ptr nonnull %11) #10
  %12 = icmp eq i16 %3, 1133
  %13 = icmp eq i16 %4, -13615
  %or.cond = and i1 %12, %13
  br i1 %or.cond, label %29, label %14

14:                                               ; preds = %10
  %15 = icmp eq i32 %2, 4
  %16 = icmp ne i16 %3, 1356
  %or.cond5 = and i1 %15, %16
  br i1 %or.cond5, label %19, label %17

17:                                               ; preds = %14
  %18 = tail call zeroext i1 @HIDAPI_SupportsPlaystationDetection(i16 noundef zeroext %3, i16 noundef zeroext %4) #10
  br i1 %18, label %19, label %29

19:                                               ; preds = %14, %17
  %.not = icmp eq ptr %0, null
  br i1 %.not, label %29, label %20

20:                                               ; preds = %19
  %21 = getelementptr inbounds nuw i8, ptr %0, i64 128
  %22 = load ptr, ptr %21, align 8
  %.not21 = icmp eq ptr %22, null
  br i1 %.not21, label %29, label %23

23:                                               ; preds = %20
  call void @llvm.memset.p0.i64(ptr noundef nonnull align 16 dereferenceable(64) %11, i8 0, i64 64, i1 false)
  store i8 3, ptr %11, align 16
  %24 = call i32 @SDL_hid_get_feature_report_REAL(ptr noundef nonnull %22, ptr noundef nonnull %11, i64 noundef 64) #10
  %25 = icmp eq i32 %24, 8
  %26 = getelementptr inbounds nuw i8, ptr %11, i64 2
  %27 = load i8, ptr %26, align 2
  %28 = icmp eq i8 %27, 38
  %or.cond9 = select i1 %25, i1 %28, i1 false
  br label %29

29:                                               ; preds = %17, %19, %20, %23, %10
  %.0 = phi i1 [ true, %10 ], [ %or.cond9, %23 ], [ true, %20 ], [ true, %19 ], [ false, %17 ]
  call void @llvm.lifetime.end.p0(i64 64, ptr nonnull %11) #10
  ret i1 %.0
}